ARM GAS  F:\msys64\tmp\cc999JRZ.s 			page 1


   1              		.cpu cortex-m7
   2              		.arch armv7e-m
   3              		.fpu fpv5-d16
   4              		.eabi_attribute 28, 1
   5              		.eabi_attribute 20, 1
   6              		.eabi_attribute 21, 1
   7              		.eabi_attribute 23, 3
   8              		.eabi_attribute 24, 1
   9              		.eabi_attribute 25, 1
  10              		.eabi_attribute 26, 1
  11              		.eabi_attribute 30, 1
  12              		.eabi_attribute 34, 1
  13              		.eabi_attribute 18, 4
  14              		.file	"syscalls.c"
  15              		.text
  16              	.Ltext0:
  17              		.cfi_sections	.debug_frame
  18              		.section	.text.initialise_monitor_handles,"ax",%progbits
  19              		.align	1
  20              		.global	initialise_monitor_handles
  21              		.syntax unified
  22              		.thumb
  23              		.thumb_func
  25              	initialise_monitor_handles:
  26              	.LFB169:
  27              		.file 1 "Core/Src/syscalls.c"
   1:Core/Src/syscalls.c **** /* Support files for GNU libc.  Files in the system namespace go here.
   2:Core/Src/syscalls.c ****    Files in the C namespace (ie those that do not start with an
   3:Core/Src/syscalls.c ****    underscore) go in .c.  */
   4:Core/Src/syscalls.c **** 
   5:Core/Src/syscalls.c **** /* Includes */
   6:Core/Src/syscalls.c **** #include <sys/stat.h>
   7:Core/Src/syscalls.c **** #include <stdlib.h>
   8:Core/Src/syscalls.c **** #include <errno.h>
   9:Core/Src/syscalls.c **** #include <stdio.h>
  10:Core/Src/syscalls.c **** #include <signal.h>
  11:Core/Src/syscalls.c **** #include <time.h>
  12:Core/Src/syscalls.c **** #include <sys/time.h>
  13:Core/Src/syscalls.c **** #include <sys/times.h>
  14:Core/Src/syscalls.c **** #include "main.h"
  15:Core/Src/syscalls.c **** 
  16:Core/Src/syscalls.c **** /* Variables */
  17:Core/Src/syscalls.c **** //#undef errno
  18:Core/Src/syscalls.c **** extern int errno;
  19:Core/Src/syscalls.c **** extern int __io_putchar(int ch) __attribute__((weak));
  20:Core/Src/syscalls.c **** extern int __io_getchar(void) __attribute__((weak));
  21:Core/Src/syscalls.c **** 
  22:Core/Src/syscalls.c **** register char * stack_ptr asm("sp");
  23:Core/Src/syscalls.c **** 
  24:Core/Src/syscalls.c **** char *__env[1] = { 0 };
  25:Core/Src/syscalls.c **** char **environ = __env;
  26:Core/Src/syscalls.c **** 
  27:Core/Src/syscalls.c **** 
  28:Core/Src/syscalls.c **** /* Functions */
  29:Core/Src/syscalls.c **** void initialise_monitor_handles()
  30:Core/Src/syscalls.c **** {
  28              		.loc 1 30 1 view -0
ARM GAS  F:\msys64\tmp\cc999JRZ.s 			page 2


  29              		.cfi_startproc
  30              		@ args = 0, pretend = 0, frame = 0
  31              		@ frame_needed = 0, uses_anonymous_args = 0
  32              		@ link register save eliminated.
  31:Core/Src/syscalls.c **** }
  33              		.loc 1 31 1 view .LVU1
  34 0000 7047     		bx	lr
  35              		.cfi_endproc
  36              	.LFE169:
  38              		.section	.text._getpid,"ax",%progbits
  39              		.align	1
  40              		.global	_getpid
  41              		.syntax unified
  42              		.thumb
  43              		.thumb_func
  45              	_getpid:
  46              	.LFB170:
  32:Core/Src/syscalls.c **** 
  33:Core/Src/syscalls.c **** int _getpid(void)
  34:Core/Src/syscalls.c **** {
  47              		.loc 1 34 1 view -0
  48              		.cfi_startproc
  49              		@ args = 0, pretend = 0, frame = 0
  50              		@ frame_needed = 0, uses_anonymous_args = 0
  51              		@ link register save eliminated.
  35:Core/Src/syscalls.c **** 	return 1;
  52              		.loc 1 35 2 view .LVU3
  36:Core/Src/syscalls.c **** }
  53              		.loc 1 36 1 is_stmt 0 view .LVU4
  54 0000 0120     		movs	r0, #1
  55 0002 7047     		bx	lr
  56              		.cfi_endproc
  57              	.LFE170:
  59              		.section	.text._kill,"ax",%progbits
  60              		.align	1
  61              		.global	_kill
  62              		.syntax unified
  63              		.thumb
  64              		.thumb_func
  66              	_kill:
  67              	.LVL0:
  68              	.LFB171:
  37:Core/Src/syscalls.c **** 
  38:Core/Src/syscalls.c **** int _kill(int pid, int sig)
  39:Core/Src/syscalls.c **** {
  69              		.loc 1 39 1 is_stmt 1 view -0
  70              		.cfi_startproc
  71              		@ args = 0, pretend = 0, frame = 0
  72              		@ frame_needed = 0, uses_anonymous_args = 0
  73              		.loc 1 39 1 is_stmt 0 view .LVU6
  74 0000 08B5     		push	{r3, lr}
  75              	.LCFI0:
  76              		.cfi_def_cfa_offset 8
  77              		.cfi_offset 3, -8
  78              		.cfi_offset 14, -4
  40:Core/Src/syscalls.c **** 	errno = EINVAL;
  79              		.loc 1 40 2 is_stmt 1 view .LVU7
ARM GAS  F:\msys64\tmp\cc999JRZ.s 			page 3


  80 0002 FFF7FEFF 		bl	__errno
  81              	.LVL1:
  82              		.loc 1 40 8 is_stmt 0 view .LVU8
  83 0006 1623     		movs	r3, #22
  84 0008 0360     		str	r3, [r0]
  41:Core/Src/syscalls.c **** 	return -1;
  85              		.loc 1 41 2 is_stmt 1 view .LVU9
  42:Core/Src/syscalls.c **** }
  86              		.loc 1 42 1 is_stmt 0 view .LVU10
  87 000a 4FF0FF30 		mov	r0, #-1
  88 000e 08BD     		pop	{r3, pc}
  89              		.cfi_endproc
  90              	.LFE171:
  92              		.section	.text._exit,"ax",%progbits
  93              		.align	1
  94              		.global	_exit
  95              		.syntax unified
  96              		.thumb
  97              		.thumb_func
  99              	_exit:
 100              	.LVL2:
 101              	.LFB172:
  43:Core/Src/syscalls.c **** 
  44:Core/Src/syscalls.c **** void _exit (int status)
  45:Core/Src/syscalls.c **** {
 102              		.loc 1 45 1 is_stmt 1 view -0
 103              		.cfi_startproc
 104              		@ Volatile: function does not return.
 105              		@ args = 0, pretend = 0, frame = 0
 106              		@ frame_needed = 0, uses_anonymous_args = 0
 107              		.loc 1 45 1 is_stmt 0 view .LVU12
 108 0000 08B5     		push	{r3, lr}
 109              	.LCFI1:
 110              		.cfi_def_cfa_offset 8
 111              		.cfi_offset 3, -8
 112              		.cfi_offset 14, -4
  46:Core/Src/syscalls.c **** 	_kill(status, -1);
 113              		.loc 1 46 2 is_stmt 1 view .LVU13
 114 0002 4FF0FF31 		mov	r1, #-1
 115 0006 FFF7FEFF 		bl	_kill
 116              	.LVL3:
 117              	.L6:
  47:Core/Src/syscalls.c **** 	while (1) {}		/* Make sure we hang here */
 118              		.loc 1 47 2 discriminator 1 view .LVU14
 119              		.loc 1 47 13 discriminator 1 view .LVU15
 120              		.loc 1 47 8 discriminator 1 view .LVU16
 121 000a FEE7     		b	.L6
 122              		.cfi_endproc
 123              	.LFE172:
 125              		.section	.text._read,"ax",%progbits
 126              		.align	1
 127              		.weak	_read
 128              		.syntax unified
 129              		.thumb
 130              		.thumb_func
 132              	_read:
 133              	.LVL4:
ARM GAS  F:\msys64\tmp\cc999JRZ.s 			page 4


 134              	.LFB173:
  48:Core/Src/syscalls.c **** }
  49:Core/Src/syscalls.c **** 
  50:Core/Src/syscalls.c **** __attribute__((weak)) int _read(int file, char *ptr, int len)
  51:Core/Src/syscalls.c **** {
 135              		.loc 1 51 1 view -0
 136              		.cfi_startproc
 137              		@ args = 0, pretend = 0, frame = 0
 138              		@ frame_needed = 0, uses_anonymous_args = 0
 139              		.loc 1 51 1 is_stmt 0 view .LVU18
 140 0000 70B5     		push	{r4, r5, r6, lr}
 141              	.LCFI2:
 142              		.cfi_def_cfa_offset 16
 143              		.cfi_offset 4, -16
 144              		.cfi_offset 5, -12
 145              		.cfi_offset 6, -8
 146              		.cfi_offset 14, -4
 147 0002 0C46     		mov	r4, r1
 148 0004 1646     		mov	r6, r2
  52:Core/Src/syscalls.c **** 	int DataIdx;
 149              		.loc 1 52 2 is_stmt 1 view .LVU19
  53:Core/Src/syscalls.c **** 
  54:Core/Src/syscalls.c **** 	for (DataIdx = 0; DataIdx < len; DataIdx++)
 150              		.loc 1 54 2 view .LVU20
 151              	.LVL5:
 152              		.loc 1 54 15 is_stmt 0 view .LVU21
 153 0006 0025     		movs	r5, #0
 154              		.loc 1 54 2 view .LVU22
 155 0008 06E0     		b	.L9
 156              	.LVL6:
 157              	.L10:
  55:Core/Src/syscalls.c **** 	{
  56:Core/Src/syscalls.c **** 		*ptr++ = __io_getchar();
 158              		.loc 1 56 3 is_stmt 1 discriminator 3 view .LVU23
 159              		.loc 1 56 12 is_stmt 0 discriminator 3 view .LVU24
 160 000a FFF7FEFF 		bl	__io_getchar
 161              	.LVL7:
 162              		.loc 1 56 7 discriminator 3 view .LVU25
 163 000e 2146     		mov	r1, r4
 164              	.LVL8:
 165              		.loc 1 56 10 discriminator 3 view .LVU26
 166 0010 01F8010B 		strb	r0, [r1], #1
 167              	.LVL9:
  54:Core/Src/syscalls.c **** 	{
 168              		.loc 1 54 35 is_stmt 1 discriminator 3 view .LVU27
  54:Core/Src/syscalls.c **** 	{
 169              		.loc 1 54 42 is_stmt 0 discriminator 3 view .LVU28
 170 0014 0135     		adds	r5, r5, #1
 171              	.LVL10:
 172              		.loc 1 56 7 discriminator 3 view .LVU29
 173 0016 0C46     		mov	r4, r1
 174              	.LVL11:
 175              	.L9:
  54:Core/Src/syscalls.c **** 	{
 176              		.loc 1 54 20 is_stmt 1 discriminator 1 view .LVU30
  54:Core/Src/syscalls.c **** 	{
 177              		.loc 1 54 2 is_stmt 0 discriminator 1 view .LVU31
ARM GAS  F:\msys64\tmp\cc999JRZ.s 			page 5


 178 0018 B542     		cmp	r5, r6
 179 001a F6DB     		blt	.L10
  57:Core/Src/syscalls.c **** 	}
  58:Core/Src/syscalls.c **** 
  59:Core/Src/syscalls.c **** return len;
 180              		.loc 1 59 1 is_stmt 1 view .LVU32
  60:Core/Src/syscalls.c **** }
 181              		.loc 1 60 1 is_stmt 0 view .LVU33
 182 001c 3046     		mov	r0, r6
 183 001e 70BD     		pop	{r4, r5, r6, pc}
 184              		.loc 1 60 1 view .LVU34
 185              		.cfi_endproc
 186              	.LFE173:
 188              		.section	.text._write,"ax",%progbits
 189              		.align	1
 190              		.weak	_write
 191              		.syntax unified
 192              		.thumb
 193              		.thumb_func
 195              	_write:
 196              	.LVL12:
 197              	.LFB174:
  61:Core/Src/syscalls.c **** 
  62:Core/Src/syscalls.c **** __attribute__((weak)) int _write(int file, char *ptr, int len)
  63:Core/Src/syscalls.c **** {
 198              		.loc 1 63 1 is_stmt 1 view -0
 199              		.cfi_startproc
 200              		@ args = 0, pretend = 0, frame = 0
 201              		@ frame_needed = 0, uses_anonymous_args = 0
 202              		.loc 1 63 1 is_stmt 0 view .LVU36
 203 0000 70B5     		push	{r4, r5, r6, lr}
 204              	.LCFI3:
 205              		.cfi_def_cfa_offset 16
 206              		.cfi_offset 4, -16
 207              		.cfi_offset 5, -12
 208              		.cfi_offset 6, -8
 209              		.cfi_offset 14, -4
 210 0002 0C46     		mov	r4, r1
 211 0004 1646     		mov	r6, r2
  64:Core/Src/syscalls.c **** 	int DataIdx;
 212              		.loc 1 64 2 is_stmt 1 view .LVU37
  65:Core/Src/syscalls.c **** 
  66:Core/Src/syscalls.c **** 	for (DataIdx = 0; DataIdx < len; DataIdx++)
 213              		.loc 1 66 2 view .LVU38
 214              	.LVL13:
 215              		.loc 1 66 15 is_stmt 0 view .LVU39
 216 0006 0025     		movs	r5, #0
 217              		.loc 1 66 2 view .LVU40
 218 0008 04E0     		b	.L13
 219              	.LVL14:
 220              	.L14:
  67:Core/Src/syscalls.c **** 	{
  68:Core/Src/syscalls.c **** 		__io_putchar(*ptr++);
 221              		.loc 1 68 3 is_stmt 1 discriminator 3 view .LVU41
 222              		.loc 1 68 3 is_stmt 0 discriminator 3 view .LVU42
 223 000a 14F8010B 		ldrb	r0, [r4], #1	@ zero_extendqisi2
 224              	.LVL15:
ARM GAS  F:\msys64\tmp\cc999JRZ.s 			page 6


 225              		.loc 1 68 3 discriminator 3 view .LVU43
 226 000e FFF7FEFF 		bl	__io_putchar
 227              	.LVL16:
  66:Core/Src/syscalls.c **** 	{
 228              		.loc 1 66 35 is_stmt 1 discriminator 3 view .LVU44
  66:Core/Src/syscalls.c **** 	{
 229              		.loc 1 66 42 is_stmt 0 discriminator 3 view .LVU45
 230 0012 0135     		adds	r5, r5, #1
 231              	.LVL17:
 232              	.L13:
  66:Core/Src/syscalls.c **** 	{
 233              		.loc 1 66 20 is_stmt 1 discriminator 1 view .LVU46
  66:Core/Src/syscalls.c **** 	{
 234              		.loc 1 66 2 is_stmt 0 discriminator 1 view .LVU47
 235 0014 B542     		cmp	r5, r6
 236 0016 F8DB     		blt	.L14
  69:Core/Src/syscalls.c **** 	}
  70:Core/Src/syscalls.c **** 	return len;
 237              		.loc 1 70 2 is_stmt 1 view .LVU48
  71:Core/Src/syscalls.c **** }
 238              		.loc 1 71 1 is_stmt 0 view .LVU49
 239 0018 3046     		mov	r0, r6
 240 001a 70BD     		pop	{r4, r5, r6, pc}
 241              		.loc 1 71 1 view .LVU50
 242              		.cfi_endproc
 243              	.LFE174:
 245              		.section	.text._sbrk,"ax",%progbits
 246              		.align	1
 247              		.global	_sbrk
 248              		.syntax unified
 249              		.thumb
 250              		.thumb_func
 252              	_sbrk:
 253              	.LVL18:
 254              	.LFB175:
  72:Core/Src/syscalls.c **** 
  73:Core/Src/syscalls.c **** caddr_t _sbrk(int incr)
  74:Core/Src/syscalls.c **** {
 255              		.loc 1 74 1 is_stmt 1 view -0
 256              		.cfi_startproc
 257              		@ args = 0, pretend = 0, frame = 0
 258              		@ frame_needed = 0, uses_anonymous_args = 0
 259              		.loc 1 74 1 is_stmt 0 view .LVU52
 260 0000 08B5     		push	{r3, lr}
 261              	.LCFI4:
 262              		.cfi_def_cfa_offset 8
 263              		.cfi_offset 3, -8
 264              		.cfi_offset 14, -4
 265 0002 0346     		mov	r3, r0
  75:Core/Src/syscalls.c **** 	extern char end asm("end");
 266              		.loc 1 75 2 is_stmt 1 view .LVU53
  76:Core/Src/syscalls.c **** 	static char *heap_end;
 267              		.loc 1 76 2 view .LVU54
  77:Core/Src/syscalls.c **** 	char *prev_heap_end;
 268              		.loc 1 77 2 view .LVU55
  78:Core/Src/syscalls.c **** 
  79:Core/Src/syscalls.c **** 	if (heap_end == 0)
ARM GAS  F:\msys64\tmp\cc999JRZ.s 			page 7


 269              		.loc 1 79 2 view .LVU56
 270              		.loc 1 79 15 is_stmt 0 view .LVU57
 271 0004 0B4A     		ldr	r2, .L23
 272 0006 1268     		ldr	r2, [r2]
 273              		.loc 1 79 5 view .LVU58
 274 0008 42B1     		cbz	r2, .L21
 275              	.L17:
  80:Core/Src/syscalls.c **** 		heap_end = &end;
  81:Core/Src/syscalls.c **** 
  82:Core/Src/syscalls.c **** 	prev_heap_end = heap_end;
 276              		.loc 1 82 2 is_stmt 1 view .LVU59
 277              		.loc 1 82 16 is_stmt 0 view .LVU60
 278 000a 0A4A     		ldr	r2, .L23
 279 000c 1068     		ldr	r0, [r2]
 280              	.LVL19:
  83:Core/Src/syscalls.c **** 	if (heap_end + incr > stack_ptr)
 281              		.loc 1 83 2 is_stmt 1 view .LVU61
 282              		.loc 1 83 15 is_stmt 0 view .LVU62
 283 000e 0344     		add	r3, r3, r0
 284              	.LVL20:
 285              		.loc 1 83 5 view .LVU63
 286 0010 6A46     		mov	r2, sp
 287 0012 9342     		cmp	r3, r2
 288 0014 06D8     		bhi	.L22
  84:Core/Src/syscalls.c **** 	{
  85:Core/Src/syscalls.c **** //		write(1, "Heap and stack collision\n", 25);
  86:Core/Src/syscalls.c **** //		abort();
  87:Core/Src/syscalls.c **** 		errno = ENOMEM;
  88:Core/Src/syscalls.c **** 		return (caddr_t) -1;
  89:Core/Src/syscalls.c **** 	}
  90:Core/Src/syscalls.c **** 
  91:Core/Src/syscalls.c **** 	heap_end += incr;
 289              		.loc 1 91 2 is_stmt 1 view .LVU64
 290              		.loc 1 91 11 is_stmt 0 view .LVU65
 291 0016 074A     		ldr	r2, .L23
 292 0018 1360     		str	r3, [r2]
  92:Core/Src/syscalls.c **** 
  93:Core/Src/syscalls.c **** 	return (caddr_t) prev_heap_end;
 293              		.loc 1 93 2 is_stmt 1 view .LVU66
 294              	.LVL21:
 295              	.L16:
  94:Core/Src/syscalls.c **** }
 296              		.loc 1 94 1 is_stmt 0 view .LVU67
 297 001a 08BD     		pop	{r3, pc}
 298              	.LVL22:
 299              	.L21:
  80:Core/Src/syscalls.c **** 
 300              		.loc 1 80 3 is_stmt 1 view .LVU68
  80:Core/Src/syscalls.c **** 
 301              		.loc 1 80 12 is_stmt 0 view .LVU69
 302 001c 054A     		ldr	r2, .L23
 303 001e 0649     		ldr	r1, .L23+4
 304 0020 1160     		str	r1, [r2]
 305 0022 F2E7     		b	.L17
 306              	.LVL23:
 307              	.L22:
  87:Core/Src/syscalls.c **** 		return (caddr_t) -1;
ARM GAS  F:\msys64\tmp\cc999JRZ.s 			page 8


 308              		.loc 1 87 3 is_stmt 1 view .LVU70
 309 0024 FFF7FEFF 		bl	__errno
 310              	.LVL24:
  87:Core/Src/syscalls.c **** 		return (caddr_t) -1;
 311              		.loc 1 87 9 is_stmt 0 view .LVU71
 312 0028 0C23     		movs	r3, #12
 313 002a 0360     		str	r3, [r0]
  88:Core/Src/syscalls.c **** 	}
 314              		.loc 1 88 3 is_stmt 1 view .LVU72
  88:Core/Src/syscalls.c **** 	}
 315              		.loc 1 88 10 is_stmt 0 view .LVU73
 316 002c 4FF0FF30 		mov	r0, #-1
 317 0030 F3E7     		b	.L16
 318              	.L24:
 319 0032 00BF     		.align	2
 320              	.L23:
 321 0034 00000000 		.word	.LANCHOR0
 322 0038 00000000 		.word	end
 323              		.cfi_endproc
 324              	.LFE175:
 326              		.section	.text._close,"ax",%progbits
 327              		.align	1
 328              		.global	_close
 329              		.syntax unified
 330              		.thumb
 331              		.thumb_func
 333              	_close:
 334              	.LVL25:
 335              	.LFB176:
  95:Core/Src/syscalls.c **** 
  96:Core/Src/syscalls.c **** int _close(int file)
  97:Core/Src/syscalls.c **** {
 336              		.loc 1 97 1 is_stmt 1 view -0
 337              		.cfi_startproc
 338              		@ args = 0, pretend = 0, frame = 0
 339              		@ frame_needed = 0, uses_anonymous_args = 0
 340              		@ link register save eliminated.
  98:Core/Src/syscalls.c **** 	return -1;
 341              		.loc 1 98 2 view .LVU75
  99:Core/Src/syscalls.c **** }
 342              		.loc 1 99 1 is_stmt 0 view .LVU76
 343 0000 4FF0FF30 		mov	r0, #-1
 344              	.LVL26:
 345              		.loc 1 99 1 view .LVU77
 346 0004 7047     		bx	lr
 347              		.cfi_endproc
 348              	.LFE176:
 350              		.section	.text._fstat,"ax",%progbits
 351              		.align	1
 352              		.global	_fstat
 353              		.syntax unified
 354              		.thumb
 355              		.thumb_func
 357              	_fstat:
 358              	.LVL27:
 359              	.LFB177:
 100:Core/Src/syscalls.c **** 
ARM GAS  F:\msys64\tmp\cc999JRZ.s 			page 9


 101:Core/Src/syscalls.c **** 
 102:Core/Src/syscalls.c **** int _fstat(int file, struct stat *st)
 103:Core/Src/syscalls.c **** {
 360              		.loc 1 103 1 is_stmt 1 view -0
 361              		.cfi_startproc
 362              		@ args = 0, pretend = 0, frame = 0
 363              		@ frame_needed = 0, uses_anonymous_args = 0
 364              		@ link register save eliminated.
 104:Core/Src/syscalls.c **** 	st->st_mode = S_IFCHR;
 365              		.loc 1 104 2 view .LVU79
 366              		.loc 1 104 14 is_stmt 0 view .LVU80
 367 0000 4FF40053 		mov	r3, #8192
 368 0004 4B60     		str	r3, [r1, #4]
 105:Core/Src/syscalls.c **** 	return 0;
 369              		.loc 1 105 2 is_stmt 1 view .LVU81
 106:Core/Src/syscalls.c **** }
 370              		.loc 1 106 1 is_stmt 0 view .LVU82
 371 0006 0020     		movs	r0, #0
 372              	.LVL28:
 373              		.loc 1 106 1 view .LVU83
 374 0008 7047     		bx	lr
 375              		.cfi_endproc
 376              	.LFE177:
 378              		.section	.text._isatty,"ax",%progbits
 379              		.align	1
 380              		.global	_isatty
 381              		.syntax unified
 382              		.thumb
 383              		.thumb_func
 385              	_isatty:
 386              	.LVL29:
 387              	.LFB178:
 107:Core/Src/syscalls.c **** 
 108:Core/Src/syscalls.c **** int _isatty(int file)
 109:Core/Src/syscalls.c **** {
 388              		.loc 1 109 1 is_stmt 1 view -0
 389              		.cfi_startproc
 390              		@ args = 0, pretend = 0, frame = 0
 391              		@ frame_needed = 0, uses_anonymous_args = 0
 392              		@ link register save eliminated.
 110:Core/Src/syscalls.c **** 	return 1;
 393              		.loc 1 110 2 view .LVU85
 111:Core/Src/syscalls.c **** }
 394              		.loc 1 111 1 is_stmt 0 view .LVU86
 395 0000 0120     		movs	r0, #1
 396              	.LVL30:
 397              		.loc 1 111 1 view .LVU87
 398 0002 7047     		bx	lr
 399              		.cfi_endproc
 400              	.LFE178:
 402              		.section	.text._lseek,"ax",%progbits
 403              		.align	1
 404              		.global	_lseek
 405              		.syntax unified
 406              		.thumb
 407              		.thumb_func
 409              	_lseek:
ARM GAS  F:\msys64\tmp\cc999JRZ.s 			page 10


 410              	.LVL31:
 411              	.LFB179:
 112:Core/Src/syscalls.c **** 
 113:Core/Src/syscalls.c **** int _lseek(int file, int ptr, int dir)
 114:Core/Src/syscalls.c **** {
 412              		.loc 1 114 1 is_stmt 1 view -0
 413              		.cfi_startproc
 414              		@ args = 0, pretend = 0, frame = 0
 415              		@ frame_needed = 0, uses_anonymous_args = 0
 416              		@ link register save eliminated.
 115:Core/Src/syscalls.c **** 	return 0;
 417              		.loc 1 115 2 view .LVU89
 116:Core/Src/syscalls.c **** }
 418              		.loc 1 116 1 is_stmt 0 view .LVU90
 419 0000 0020     		movs	r0, #0
 420              	.LVL32:
 421              		.loc 1 116 1 view .LVU91
 422 0002 7047     		bx	lr
 423              		.cfi_endproc
 424              	.LFE179:
 426              		.section	.text._open,"ax",%progbits
 427              		.align	1
 428              		.global	_open
 429              		.syntax unified
 430              		.thumb
 431              		.thumb_func
 433              	_open:
 434              	.LVL33:
 435              	.LFB180:
 117:Core/Src/syscalls.c **** 
 118:Core/Src/syscalls.c **** int _open(char *path, int flags, ...)
 119:Core/Src/syscalls.c **** {
 436              		.loc 1 119 1 is_stmt 1 view -0
 437              		.cfi_startproc
 438              		@ args = 4, pretend = 12, frame = 0
 439              		@ frame_needed = 0, uses_anonymous_args = 1
 440              		@ link register save eliminated.
 441              		.loc 1 119 1 is_stmt 0 view .LVU93
 442 0000 0EB4     		push	{r1, r2, r3}
 443              	.LCFI5:
 444              		.cfi_def_cfa_offset 12
 445              		.cfi_offset 1, -12
 446              		.cfi_offset 2, -8
 447              		.cfi_offset 3, -4
 120:Core/Src/syscalls.c **** 	/* Pretend like we always fail */
 121:Core/Src/syscalls.c **** 	return -1;
 448              		.loc 1 121 2 is_stmt 1 view .LVU94
 122:Core/Src/syscalls.c **** }
 449              		.loc 1 122 1 is_stmt 0 view .LVU95
 450 0002 4FF0FF30 		mov	r0, #-1
 451              	.LVL34:
 452              		.loc 1 122 1 view .LVU96
 453 0006 03B0     		add	sp, sp, #12
 454              	.LCFI6:
 455              		.cfi_restore 3
 456              		.cfi_restore 2
 457              		.cfi_restore 1
ARM GAS  F:\msys64\tmp\cc999JRZ.s 			page 11


 458              		.cfi_def_cfa_offset 0
 459 0008 7047     		bx	lr
 460              		.cfi_endproc
 461              	.LFE180:
 463              		.section	.text._wait,"ax",%progbits
 464              		.align	1
 465              		.global	_wait
 466              		.syntax unified
 467              		.thumb
 468              		.thumb_func
 470              	_wait:
 471              	.LVL35:
 472              	.LFB181:
 123:Core/Src/syscalls.c **** 
 124:Core/Src/syscalls.c **** int _wait(int *status)
 125:Core/Src/syscalls.c **** {
 473              		.loc 1 125 1 is_stmt 1 view -0
 474              		.cfi_startproc
 475              		@ args = 0, pretend = 0, frame = 0
 476              		@ frame_needed = 0, uses_anonymous_args = 0
 477              		.loc 1 125 1 is_stmt 0 view .LVU98
 478 0000 08B5     		push	{r3, lr}
 479              	.LCFI7:
 480              		.cfi_def_cfa_offset 8
 481              		.cfi_offset 3, -8
 482              		.cfi_offset 14, -4
 126:Core/Src/syscalls.c **** 	errno = ECHILD;
 483              		.loc 1 126 2 is_stmt 1 view .LVU99
 484 0002 FFF7FEFF 		bl	__errno
 485              	.LVL36:
 486              		.loc 1 126 8 is_stmt 0 view .LVU100
 487 0006 0A23     		movs	r3, #10
 488 0008 0360     		str	r3, [r0]
 127:Core/Src/syscalls.c **** 	return -1;
 489              		.loc 1 127 2 is_stmt 1 view .LVU101
 128:Core/Src/syscalls.c **** }
 490              		.loc 1 128 1 is_stmt 0 view .LVU102
 491 000a 4FF0FF30 		mov	r0, #-1
 492 000e 08BD     		pop	{r3, pc}
 493              		.cfi_endproc
 494              	.LFE181:
 496              		.section	.text._unlink,"ax",%progbits
 497              		.align	1
 498              		.global	_unlink
 499              		.syntax unified
 500              		.thumb
 501              		.thumb_func
 503              	_unlink:
 504              	.LVL37:
 505              	.LFB182:
 129:Core/Src/syscalls.c **** 
 130:Core/Src/syscalls.c **** int _unlink(char *name)
 131:Core/Src/syscalls.c **** {
 506              		.loc 1 131 1 is_stmt 1 view -0
 507              		.cfi_startproc
 508              		@ args = 0, pretend = 0, frame = 0
 509              		@ frame_needed = 0, uses_anonymous_args = 0
ARM GAS  F:\msys64\tmp\cc999JRZ.s 			page 12


 510              		.loc 1 131 1 is_stmt 0 view .LVU104
 511 0000 08B5     		push	{r3, lr}
 512              	.LCFI8:
 513              		.cfi_def_cfa_offset 8
 514              		.cfi_offset 3, -8
 515              		.cfi_offset 14, -4
 132:Core/Src/syscalls.c **** 	errno = ENOENT;
 516              		.loc 1 132 2 is_stmt 1 view .LVU105
 517 0002 FFF7FEFF 		bl	__errno
 518              	.LVL38:
 519              		.loc 1 132 8 is_stmt 0 view .LVU106
 520 0006 0223     		movs	r3, #2
 521 0008 0360     		str	r3, [r0]
 133:Core/Src/syscalls.c **** 	return -1;
 522              		.loc 1 133 2 is_stmt 1 view .LVU107
 134:Core/Src/syscalls.c **** }
 523              		.loc 1 134 1 is_stmt 0 view .LVU108
 524 000a 4FF0FF30 		mov	r0, #-1
 525 000e 08BD     		pop	{r3, pc}
 526              		.cfi_endproc
 527              	.LFE182:
 529              		.section	.text._times,"ax",%progbits
 530              		.align	1
 531              		.global	_times
 532              		.syntax unified
 533              		.thumb
 534              		.thumb_func
 536              	_times:
 537              	.LVL39:
 538              	.LFB183:
 135:Core/Src/syscalls.c **** 
 136:Core/Src/syscalls.c **** int _times(struct tms *buf)
 137:Core/Src/syscalls.c **** {
 539              		.loc 1 137 1 is_stmt 1 view -0
 540              		.cfi_startproc
 541              		@ args = 0, pretend = 0, frame = 0
 542              		@ frame_needed = 0, uses_anonymous_args = 0
 543              		@ link register save eliminated.
 138:Core/Src/syscalls.c **** 	return -1;
 544              		.loc 1 138 2 view .LVU110
 139:Core/Src/syscalls.c **** }
 545              		.loc 1 139 1 is_stmt 0 view .LVU111
 546 0000 4FF0FF30 		mov	r0, #-1
 547              	.LVL40:
 548              		.loc 1 139 1 view .LVU112
 549 0004 7047     		bx	lr
 550              		.cfi_endproc
 551              	.LFE183:
 553              		.section	.text._stat,"ax",%progbits
 554              		.align	1
 555              		.global	_stat
 556              		.syntax unified
 557              		.thumb
 558              		.thumb_func
 560              	_stat:
 561              	.LVL41:
 562              	.LFB184:
ARM GAS  F:\msys64\tmp\cc999JRZ.s 			page 13


 140:Core/Src/syscalls.c **** 
 141:Core/Src/syscalls.c **** int _stat(char *file, struct stat *st)
 142:Core/Src/syscalls.c **** {
 563              		.loc 1 142 1 is_stmt 1 view -0
 564              		.cfi_startproc
 565              		@ args = 0, pretend = 0, frame = 0
 566              		@ frame_needed = 0, uses_anonymous_args = 0
 567              		@ link register save eliminated.
 143:Core/Src/syscalls.c **** 	st->st_mode = S_IFCHR;
 568              		.loc 1 143 2 view .LVU114
 569              		.loc 1 143 14 is_stmt 0 view .LVU115
 570 0000 4FF40053 		mov	r3, #8192
 571 0004 4B60     		str	r3, [r1, #4]
 144:Core/Src/syscalls.c **** 	return 0;
 572              		.loc 1 144 2 is_stmt 1 view .LVU116
 145:Core/Src/syscalls.c **** }
 573              		.loc 1 145 1 is_stmt 0 view .LVU117
 574 0006 0020     		movs	r0, #0
 575              	.LVL42:
 576              		.loc 1 145 1 view .LVU118
 577 0008 7047     		bx	lr
 578              		.cfi_endproc
 579              	.LFE184:
 581              		.section	.text._link,"ax",%progbits
 582              		.align	1
 583              		.global	_link
 584              		.syntax unified
 585              		.thumb
 586              		.thumb_func
 588              	_link:
 589              	.LVL43:
 590              	.LFB185:
 146:Core/Src/syscalls.c **** 
 147:Core/Src/syscalls.c **** int _link(char *old, char *new)
 148:Core/Src/syscalls.c **** {
 591              		.loc 1 148 1 is_stmt 1 view -0
 592              		.cfi_startproc
 593              		@ args = 0, pretend = 0, frame = 0
 594              		@ frame_needed = 0, uses_anonymous_args = 0
 595              		.loc 1 148 1 is_stmt 0 view .LVU120
 596 0000 08B5     		push	{r3, lr}
 597              	.LCFI9:
 598              		.cfi_def_cfa_offset 8
 599              		.cfi_offset 3, -8
 600              		.cfi_offset 14, -4
 149:Core/Src/syscalls.c **** 	errno = EMLINK;
 601              		.loc 1 149 2 is_stmt 1 view .LVU121
 602 0002 FFF7FEFF 		bl	__errno
 603              	.LVL44:
 604              		.loc 1 149 8 is_stmt 0 view .LVU122
 605 0006 1F23     		movs	r3, #31
 606 0008 0360     		str	r3, [r0]
 150:Core/Src/syscalls.c **** 	return -1;
 607              		.loc 1 150 2 is_stmt 1 view .LVU123
 151:Core/Src/syscalls.c **** }
 608              		.loc 1 151 1 is_stmt 0 view .LVU124
 609 000a 4FF0FF30 		mov	r0, #-1
ARM GAS  F:\msys64\tmp\cc999JRZ.s 			page 14


 610 000e 08BD     		pop	{r3, pc}
 611              		.cfi_endproc
 612              	.LFE185:
 614              		.section	.text._fork,"ax",%progbits
 615              		.align	1
 616              		.global	_fork
 617              		.syntax unified
 618              		.thumb
 619              		.thumb_func
 621              	_fork:
 622              	.LFB186:
 152:Core/Src/syscalls.c **** 
 153:Core/Src/syscalls.c **** int _fork(void)
 154:Core/Src/syscalls.c **** {
 623              		.loc 1 154 1 is_stmt 1 view -0
 624              		.cfi_startproc
 625              		@ args = 0, pretend = 0, frame = 0
 626              		@ frame_needed = 0, uses_anonymous_args = 0
 627 0000 08B5     		push	{r3, lr}
 628              	.LCFI10:
 629              		.cfi_def_cfa_offset 8
 630              		.cfi_offset 3, -8
 631              		.cfi_offset 14, -4
 155:Core/Src/syscalls.c **** 	errno = EAGAIN;
 632              		.loc 1 155 2 view .LVU126
 633 0002 FFF7FEFF 		bl	__errno
 634              	.LVL45:
 635              		.loc 1 155 8 is_stmt 0 view .LVU127
 636 0006 0B23     		movs	r3, #11
 637 0008 0360     		str	r3, [r0]
 156:Core/Src/syscalls.c **** 	return -1;
 638              		.loc 1 156 2 is_stmt 1 view .LVU128
 157:Core/Src/syscalls.c **** }
 639              		.loc 1 157 1 is_stmt 0 view .LVU129
 640 000a 4FF0FF30 		mov	r0, #-1
 641 000e 08BD     		pop	{r3, pc}
 642              		.cfi_endproc
 643              	.LFE186:
 645              		.section	.text._execve,"ax",%progbits
 646              		.align	1
 647              		.global	_execve
 648              		.syntax unified
 649              		.thumb
 650              		.thumb_func
 652              	_execve:
 653              	.LVL46:
 654              	.LFB187:
 158:Core/Src/syscalls.c **** 
 159:Core/Src/syscalls.c **** int _execve(char *name, char **argv, char **env)
 160:Core/Src/syscalls.c **** {
 655              		.loc 1 160 1 is_stmt 1 view -0
 656              		.cfi_startproc
 657              		@ args = 0, pretend = 0, frame = 0
 658              		@ frame_needed = 0, uses_anonymous_args = 0
 659              		.loc 1 160 1 is_stmt 0 view .LVU131
 660 0000 08B5     		push	{r3, lr}
 661              	.LCFI11:
ARM GAS  F:\msys64\tmp\cc999JRZ.s 			page 15


 662              		.cfi_def_cfa_offset 8
 663              		.cfi_offset 3, -8
 664              		.cfi_offset 14, -4
 161:Core/Src/syscalls.c **** 	errno = ENOMEM;
 665              		.loc 1 161 2 is_stmt 1 view .LVU132
 666 0002 FFF7FEFF 		bl	__errno
 667              	.LVL47:
 668              		.loc 1 161 8 is_stmt 0 view .LVU133
 669 0006 0C23     		movs	r3, #12
 670 0008 0360     		str	r3, [r0]
 162:Core/Src/syscalls.c **** 	return -1;
 671              		.loc 1 162 2 is_stmt 1 view .LVU134
 163:Core/Src/syscalls.c **** }...
 672              		.loc 1 163 1 is_stmt 0 view .LVU135
 673 000a 4FF0FF30 		mov	r0, #-1
 674 000e 08BD     		pop	{r3, pc}
 675              		.cfi_endproc
 676              	.LFE187:
 678              		.global	environ
 679              		.global	__env
 680              		.section	.bss.__env,"aw",%nobits
 681              		.align	2
 684              	__env:
 685 0000 00000000 		.space	4
 686              		.section	.bss.heap_end.0,"aw",%nobits
 687              		.align	2
 688              		.set	.LANCHOR0,. + 0
 691              	heap_end.0:
 692 0000 00000000 		.space	4
 693              		.section	.data.environ,"aw"
 694              		.align	2
 697              	environ:
 698 0000 00000000 		.word	__env
 699              		.weak	__io_putchar
 700              		.weak	__io_getchar
 701              		.text
 702              	.Letext0:
 703              		.file 2 "f:\\0_career\\0_skill_stack\\hardware\\0_embedded_sys_dev\\1_mcu_dev\\0_mcu_stm32\\projec
 704              		.file 3 "f:\\0_career\\0_skill_stack\\hardware\\0_embedded_sys_dev\\1_mcu_dev\\0_mcu_stm32\\projec
 705              		.file 4 "f:\\0_career\\0_skill_stack\\hardware\\0_embedded_sys_dev\\1_mcu_dev\\0_mcu_stm32\\projec
 706              		.file 5 "f:\\0_career\\0_skill_stack\\hardware\\0_embedded_sys_dev\\1_mcu_dev\\0_mcu_stm32\\projec
 707              		.file 6 "f:\\0_career\\0_skill_stack\\hardware\\0_embedded_sys_dev\\1_mcu_dev\\0_mcu_stm32\\projec
 708              		.file 7 "f:\\0_career\\0_skill_stack\\hardware\\0_embedded_sys_dev\\1_mcu_dev\\0_mcu_stm32\\projec
 709              		.file 8 "f:\\0_career\\0_skill_stack\\hardware\\0_embedded_sys_dev\\1_mcu_dev\\0_mcu_stm32\\projec
 710              		.file 9 "f:\\0_career\\0_skill_stack\\hardware\\0_embedded_sys_dev\\1_mcu_dev\\0_mcu_stm32\\projec
ARM GAS  F:\msys64\tmp\cc999JRZ.s 			page 16

